target datalayout = "e-m:e-p270:32:32-p271:32:32-p272:64:64-i64:64-i128:128-f80:128-n8:16:32:64-S128"
target triple = "x86_64-pc-linux-gnu"

%struct._zend_alloc_globals = type { ptr }
%struct._zend_mm_heap = type { i32, ptr, i64, i64, [30 x ptr], i64, i64, i64, i32, ptr, ptr, ptr, i32, i32, i32, double, i32, i32, %struct.anon, ptr }
%struct.anon = type { ptr, ptr, ptr }
%struct._zend_mm_chunk = type { ptr, ptr, ptr, i32, i32, i32, [28 x i8], %struct._zend_mm_heap, [8 x i64], [512 x i32] }

@.str = private unnamed_addr constant [23 x i8] c"zend_mm_heap corrupted\00", align 1
@alloc_globals = internal global %struct._zend_alloc_globals zeroinitializer, align 8

; Function Attrs: nounwind uwtable
define void @_efree_large(ptr noundef %0, i64 noundef %1) #0 {
  %3 = alloca ptr, align 8
  %4 = alloca ptr, align 8
  %5 = alloca i32, align 4
  %6 = alloca i32, align 4
  %7 = alloca ptr, align 8
  %8 = alloca i64, align 8
  %9 = alloca i64, align 8
  %10 = alloca ptr, align 8
  %11 = alloca i32, align 4
  %12 = alloca i32, align 4
  store ptr %0, ptr %7, align 8
  store i64 %1, ptr %8, align 8
  br label %13

13:                                               ; preds = %2
  %14 = load ptr, ptr @alloc_globals, align 8
  %15 = getelementptr inbounds %struct._zend_mm_heap, ptr %14, i32 0, i32 0
  %16 = load i32, ptr %15, align 8
  %17 = icmp ne i32 %16, 0
  %18 = xor i1 %17, true
  %19 = xor i1 %18, true
  %20 = zext i1 %19 to i32
  %21 = sext i32 %20 to i64
  %22 = icmp ne i64 %21, 0
  br i1 %22, label %23, label %29

23:                                               ; preds = %13
  %24 = load ptr, ptr @alloc_globals, align 8
  %25 = getelementptr inbounds %struct._zend_mm_heap, ptr %24, i32 0, i32 18
  %26 = getelementptr inbounds %struct.anon, ptr %25, i32 0, i32 1
  %27 = load ptr, ptr %26, align 8
  %28 = load ptr, ptr %7, align 8
  call void %27(ptr noundef %28)
  br label %100

29:                                               ; preds = %13
  br label %30

30:                                               ; preds = %29
  %31 = load ptr, ptr %7, align 8
  %32 = ptrtoint ptr %31 to i64
  %33 = and i64 %32, 2097151
  store i64 %33, ptr %9, align 8
  %34 = load ptr, ptr %7, align 8
  %35 = ptrtoint ptr %34 to i64
  %36 = and i64 %35, -2097152
  %37 = inttoptr i64 %36 to ptr
  store ptr %37, ptr %10, align 8
  %38 = load i64, ptr %9, align 8
  %39 = udiv i64 %38, 4096
  %40 = trunc i64 %39 to i32
  store i32 %40, ptr %11, align 4
  %41 = load i64, ptr %8, align 8
  %42 = add i64 %41, 4095
  %43 = and i64 %42, -4096
  %44 = udiv i64 %43, 4096
  %45 = trunc i64 %44 to i32
  store i32 %45, ptr %12, align 4
  br label %46

46:                                               ; preds = %30
  %47 = load ptr, ptr %10, align 8
  %48 = getelementptr inbounds %struct._zend_mm_chunk, ptr %47, i32 0, i32 0
  %49 = load ptr, ptr %48, align 8
  %50 = load ptr, ptr @alloc_globals, align 8
  %51 = icmp eq ptr %49, %50
  br i1 %51, label %52, label %56

52:                                               ; preds = %46
  %53 = load i64, ptr %9, align 8
  %54 = and i64 %53, 4095
  %55 = icmp eq i64 %54, 0
  br label %56

56:                                               ; preds = %52, %46
  %57 = phi i1 [ false, %46 ], [ %55, %52 ]
  %58 = xor i1 %57, true
  %59 = xor i1 %58, true
  %60 = xor i1 %59, true
  %61 = zext i1 %60 to i32
  %62 = sext i32 %61 to i64
  %63 = icmp ne i64 %62, 0
  br i1 %63, label %64, label %65

64:                                               ; preds = %56
  call void @zend_mm_panic(ptr noundef @.str) #19
  unreachable

65:                                               ; preds = %56
  br label %66

66:                                               ; preds = %65
  %67 = load ptr, ptr %10, align 8
  %68 = getelementptr inbounds %struct._zend_mm_chunk, ptr %67, i32 0, i32 9
  %69 = load i32, ptr %11, align 4
  %70 = sext i32 %69 to i64
  %71 = getelementptr inbounds [512 x i32], ptr %68, i64 0, i64 %70
  %72 = load i32, ptr %71, align 4
  %73 = and i32 %72, 1073741824
  %74 = icmp ne i32 %73, 0
  call void @llvm.assume(i1 %74)
  %75 = load ptr, ptr %10, align 8
  %76 = getelementptr inbounds %struct._zend_mm_chunk, ptr %75, i32 0, i32 9
  %77 = load i32, ptr %11, align 4
  %78 = sext i32 %77 to i64
  %79 = getelementptr inbounds [512 x i32], ptr %76, i64 0, i64 %78
  %80 = load i32, ptr %79, align 4
  %81 = and i32 %80, 1023
  %82 = lshr i32 %81, 0
  %83 = load i32, ptr %12, align 4
  %84 = icmp eq i32 %82, %83
  call void @llvm.assume(i1 %84)
  %85 = load ptr, ptr @alloc_globals, align 8
  %86 = load ptr, ptr %10, align 8
  %87 = load i32, ptr %11, align 4
  %88 = load i32, ptr %12, align 4
  store ptr %85, ptr %3, align 8
  store ptr %86, ptr %4, align 8
  store i32 %87, ptr %5, align 4
  store i32 %88, ptr %6, align 4
  %89 = load i32, ptr %6, align 4
  %90 = mul nsw i32 %89, 4096
  %91 = sext i32 %90 to i64
  %92 = load ptr, ptr %3, align 8
  %93 = getelementptr inbounds %struct._zend_mm_heap, ptr %92, i32 0, i32 2
  %94 = load i64, ptr %93, align 8
  %95 = sub i64 %94, %91
  store i64 %95, ptr %93, align 8
  %96 = load ptr, ptr %3, align 8
  %97 = load ptr, ptr %4, align 8
  %98 = load i32, ptr %5, align 4
  %99 = load i32, ptr %6, align 4
  call void @zend_mm_free_pages(ptr noundef %96, ptr noundef %97, i32 noundef %98, i32 noundef %99)
  br label %100

100:                                              ; preds = %66, %23
  ret void
}