; Function Attrs: nounwind uwtable
define void @_efree_large(ptr noundef %0, i64 noundef %1) local_unnamed_addr #0 {
  %3 = load ptr, ptr @alloc_globals.0, align 8
  %4 = load i32, ptr %3, align 8
  %.not = icmp eq i32 %4, 0
  br i1 %.not, label %8, label %5

5:                                                ; preds = %2
  %6 = getelementptr inbounds i8, ptr %3, i64 368
  %7 = load ptr, ptr %6, align 8
  tail call void %7(ptr noundef %0) #35
  br label %36

8:                                                ; preds = %2
  %9 = ptrtoint ptr %0 to i64
  %10 = and i64 %9, -2097152
  %11 = inttoptr i64 %10 to ptr
  %12 = load ptr, ptr %11, align 2097152
  %13 = icmp ne ptr %12, %3
  %14 = and i64 %9, 4095
  %15 = icmp ne i64 %14, 0
  %.not22 = or i1 %15, %13
  br i1 %.not22, label %16, label %17

16:                                               ; preds = %8
  tail call fastcc void @zend_mm_panic() #34
  unreachable

17:                                               ; preds = %8
  %18 = add i64 %1, 4095
  %19 = lshr i64 %18, 12
  %20 = trunc i64 %19 to i32
  %21 = trunc i64 %9 to i32
  %22 = lshr exact i32 %21, 12
  %23 = and i32 %22, 511
  %24 = getelementptr inbounds i8, ptr %11, i64 520
  %25 = zext nneg i32 %23 to i64
  %26 = getelementptr inbounds [512 x i32], ptr %24, i64 0, i64 %25
  %27 = load i32, ptr %26, align 4
  %28 = and i32 %27, 1073741824
  %29 = icmp ne i32 %28, 0
  tail call void @llvm.assume(i1 %29)
  %30 = and i32 %27, 1023
  %31 = icmp eq i32 %30, %20
  tail call void @llvm.assume(i1 %31)
  %32 = and i64 %18, 4294963200
  %33 = getelementptr inbounds i8, ptr %3, i64 16
  %34 = load i64, ptr %33, align 8
  %35 = sub i64 %34, %32
  store i64 %35, ptr %33, align 8
  tail call fastcc void @zend_mm_free_pages(ptr noundef nonnull %3, ptr noundef nonnull %11, i32 noundef %23, i32 noundef %20)
  br label %36

36:                                               ; preds = %17, %5
  ret void
}